; ModuleID = '20/391.c'
source_filename = "20/391.c"
target datalayout = "e-m:e-p270:32:32-p271:32:32-p272:64:64-i64:64-f80:128-n8:16:32:64-S128"
target triple = "x86_64-pc-linux-gnu"

@.str = private unnamed_addr constant [6 x i8] c"%s %s\00", align 1
@.str.1 = private unnamed_addr constant [3 x i8] c"%c\00", align 1
@.str.2 = private unnamed_addr constant [2 x i8] c"\0A\00", align 1

; Function Attrs: noinline nounwind uwtable
define dso_local void @main() #0 {
  %1 = alloca [11 x i8], align 1
  %2 = alloca [4 x i8], align 1
  %3 = alloca i8, align 1
  %4 = alloca [14 x i8], align 1
  %5 = alloca i32, align 4
  %6 = alloca i32, align 4
  %7 = alloca i32, align 4
  %8 = alloca i32, align 4
  %9 = alloca i32, align 4
  %10 = alloca i8*, align 8
  %11 = alloca i8*, align 8
  store i32 0, i32* %9, align 4
  br label %12

12:                                               ; preds = %106, %0
  %13 = getelementptr inbounds [11 x i8], [11 x i8]* %1, i64 0, i64 0
  %14 = getelementptr inbounds [4 x i8], [4 x i8]* %2, i64 0, i64 0
  %15 = call i32 (i8*, ...) @__isoc99_scanf(i8* getelementptr inbounds ([6 x i8], [6 x i8]* @.str, i64 0, i64 0), i8* %13, i8* %14)
  %16 = icmp ne i32 %15, -1
  br i1 %16, label %17, label %108

17:                                               ; preds = %12
  %18 = getelementptr inbounds [11 x i8], [11 x i8]* %1, i64 0, i64 0
  store i8* %18, i8** %10, align 8
  %19 = getelementptr inbounds [4 x i8], [4 x i8]* %2, i64 0, i64 0
  store i8* %19, i8** %11, align 8
  %20 = getelementptr inbounds [11 x i8], [11 x i8]* %1, i64 0, i64 0
  %21 = call i64 @strlen(i8* %20) #3
  %22 = trunc i64 %21 to i32
  store i32 %22, i32* %6, align 4
  %23 = getelementptr inbounds [4 x i8], [4 x i8]* %2, i64 0, i64 0
  %24 = call i64 @strlen(i8* %23) #3
  %25 = trunc i64 %24 to i32
  store i32 %25, i32* %8, align 4
  store i8 0, i8* %3, align 1
  store i32 0, i32* %5, align 4
  br label %26

26:                                               ; preds = %47, %17
  %27 = load i32, i32* %5, align 4
  %28 = load i32, i32* %6, align 4
  %29 = icmp slt i32 %27, %28
  br i1 %29, label %30, label %50

30:                                               ; preds = %26
  %31 = load i8*, i8** %10, align 8
  %32 = load i8, i8* %31, align 1
  %33 = sext i8 %32 to i32
  %34 = load i8, i8* %3, align 1
  %35 = sext i8 %34 to i32
  %36 = icmp sgt i32 %33, %35
  br i1 %36, label %37, label %43

37:                                               ; preds = %30
  %38 = load i8*, i8** %10, align 8
  %39 = load i8, i8* %38, align 1
  store i8 %39, i8* %3, align 1
  %40 = load i32, i32* %5, align 4
  store i32 %40, i32* %7, align 4
  %41 = load i8*, i8** %10, align 8
  %42 = getelementptr inbounds i8, i8* %41, i32 1
  store i8* %42, i8** %10, align 8
  br label %46

43:                                               ; preds = %30
  %44 = load i8*, i8** %10, align 8
  %45 = getelementptr inbounds i8, i8* %44, i32 1
  store i8* %45, i8** %10, align 8
  br label %46

46:                                               ; preds = %43, %37
  br label %47

47:                                               ; preds = %46
  %48 = load i32, i32* %5, align 4
  %49 = add nsw i32 %48, 1
  store i32 %49, i32* %5, align 4
  br label %26

50:                                               ; preds = %26
  store i32 0, i32* %5, align 4
  %51 = getelementptr inbounds [11 x i8], [11 x i8]* %1, i64 0, i64 0
  store i8* %51, i8** %10, align 8
  br label %52

52:                                               ; preds = %65, %50
  %53 = load i8*, i8** %10, align 8
  %54 = getelementptr inbounds [11 x i8], [11 x i8]* %1, i64 0, i64 0
  %55 = load i32, i32* %7, align 4
  %56 = sext i32 %55 to i64
  %57 = getelementptr inbounds i8, i8* %54, i64 %56
  %58 = getelementptr inbounds i8, i8* %57, i64 1
  %59 = icmp ult i8* %53, %58
  br i1 %59, label %60, label %68

60:                                               ; preds = %52
  %61 = load i8*, i8** %10, align 8
  %62 = load i8, i8* %61, align 1
  %63 = sext i8 %62 to i32
  %64 = call i32 (i8*, ...) @printf(i8* getelementptr inbounds ([3 x i8], [3 x i8]* @.str.1, i64 0, i64 0), i32 %63)
  br label %65

65:                                               ; preds = %60
  %66 = load i8*, i8** %10, align 8
  %67 = getelementptr inbounds i8, i8* %66, i32 1
  store i8* %67, i8** %10, align 8
  br label %52

68:                                               ; preds = %52
  %69 = getelementptr inbounds [4 x i8], [4 x i8]* %2, i64 0, i64 0
  store i8* %69, i8** %11, align 8
  br label %70

70:                                               ; preds = %82, %68
  %71 = load i8*, i8** %11, align 8
  %72 = getelementptr inbounds [4 x i8], [4 x i8]* %2, i64 0, i64 0
  %73 = load i32, i32* %8, align 4
  %74 = sext i32 %73 to i64
  %75 = getelementptr inbounds i8, i8* %72, i64 %74
  %76 = icmp ult i8* %71, %75
  br i1 %76, label %77, label %85

77:                                               ; preds = %70
  %78 = load i8*, i8** %11, align 8
  %79 = load i8, i8* %78, align 1
  %80 = sext i8 %79 to i32
  %81 = call i32 (i8*, ...) @printf(i8* getelementptr inbounds ([3 x i8], [3 x i8]* @.str.1, i64 0, i64 0), i32 %80)
  br label %82

82:                                               ; preds = %77
  %83 = load i8*, i8** %11, align 8
  %84 = getelementptr inbounds i8, i8* %83, i32 1
  store i8* %84, i8** %11, align 8
  br label %70

85:                                               ; preds = %70
  %86 = getelementptr inbounds [11 x i8], [11 x i8]* %1, i64 0, i64 0
  %87 = load i32, i32* %7, align 4
  %88 = sext i32 %87 to i64
  %89 = getelementptr inbounds i8, i8* %86, i64 %88
  %90 = getelementptr inbounds i8, i8* %89, i64 1
  store i8* %90, i8** %10, align 8
  br label %91

91:                                               ; preds = %103, %85
  %92 = load i8*, i8** %10, align 8
  %93 = getelementptr inbounds [11 x i8], [11 x i8]* %1, i64 0, i64 0
  %94 = load i32, i32* %6, align 4
  %95 = sext i32 %94 to i64
  %96 = getelementptr inbounds i8, i8* %93, i64 %95
  %97 = icmp ult i8* %92, %96
  br i1 %97, label %98, label %106

98:                                               ; preds = %91
  %99 = load i8*, i8** %10, align 8
  %100 = load i8, i8* %99, align 1
  %101 = sext i8 %100 to i32
  %102 = call i32 (i8*, ...) @printf(i8* getelementptr inbounds ([3 x i8], [3 x i8]* @.str.1, i64 0, i64 0), i32 %101)
  br label %103

103:                                              ; preds = %98
  %104 = load i8*, i8** %10, align 8
  %105 = getelementptr inbounds i8, i8* %104, i32 1
  store i8* %105, i8** %10, align 8
  br label %91

106:                                              ; preds = %91
  %107 = call i32 (i8*, ...) @printf(i8* getelementptr inbounds ([2 x i8], [2 x i8]* @.str.2, i64 0, i64 0))
  br label %12

108:                                              ; preds = %12
  ret void
}

declare dso_local i32 @__isoc99_scanf(i8*, ...) #1

; Function Attrs: nounwind readonly
declare dso_local i64 @strlen(i8*) #2

declare dso_local i32 @printf(i8*, ...) #1


!llvm.module.flags = !{!0}
!llvm.ident = !{!1}

!0 = !{i32 1, !"wchar_size", i32 4}
!1 = !{!"clang version 10.0.0-4ubuntu1 "}
